

Microchip MPLAB XC8 Assembler V2.41 build 20230208172133 
                                                                                               Fri Sep 08 08:55:26 2023

Microchip MPLAB XC8 C Compiler v2.41 (Free license) build 20230208172133 Og1 
     1                           	processor	16F1939
     2                           	pagewidth 120
     3                           	opt	flic
     4                           	psect	idataCOMMON,global,class=CODE,delta=2,noexec
     5                           	psect	cinit,global,class=CODE,merge=1,delta=2
     6                           	psect	bssCOMMON,global,class=COMMON,space=1,delta=1,noexec
     7                           	psect	dataCOMMON,global,class=COMMON,space=1,delta=1,noexec
     8                           	psect	cstackCOMMON,global,class=COMMON,space=1,delta=1,noexec
     9                           	psect	maintext,global,class=CODE,merge=1,split=1,delta=2
    10                           	psect	text1,local,class=CODE,merge=1,delta=2
    11                           	psect	text2,local,class=CODE,merge=1,delta=2
    12                           	psect	text3,local,class=CODE,merge=1,delta=2
    13                           	psect	text4,local,class=CODE,merge=1,delta=2
    14                           	psect	text5,local,class=CODE,merge=1,delta=2
    15                           	psect	config,global,abs,ovrld,class=CONFIG,space=4,delta=2,noexec
    16                           	dabs	1,0x7E,2
    17     0000                     
    18                           ; Generated 09/02/2023 GMT
    19                           ; 
    20                           ; Copyright © 2023, Microchip Technology Inc. and its subsidiaries ("Microchip")
    21                           ; All rights reserved.
    22                           ; 
    23                           ; This software is developed by Microchip Technology Inc. and its subsidiaries ("Microch
      +                          ip").
    24                           ; 
    25                           ; Redistribution and use in source and binary forms, with or without modification, are
    26                           ; permitted provided that the following conditions are met:
    27                           ; 
    28                           ;     1. Redistributions of source code must retain the above copyright notice, this lis
      +                          t of
    29                           ;        conditions and the following disclaimer.
    30                           ; 
    31                           ;     2. Redistributions in binary form must reproduce the above copyright notice, this 
      +                          list
    32                           ;        of conditions and the following disclaimer in the documentation and/or other
    33                           ;        materials provided with the distribution. Publication is not required when
    34                           ;        this file is used in an embedded application.
    35                           ; 
    36                           ;     3. Microchip's name may not be used to endorse or promote products derived from th
      +                          is
    37                           ;        software without specific prior written permission.
    38                           ; 
    39                           ; THIS SOFTWARE IS PROVIDED BY MICROCHIP "AS IS" AND ANY EXPRESS OR IMPLIED WARRANTIES,
    40                           ; INCLUDING, BUT NOT LIMITED TO, THE IMPLIED WARRANTIES OF MERCHANTABILITY AND FITNESS F
      +                          OR
    41                           ; PURPOSE ARE DISCLAIMED.  IN NO EVENT SHALL MICROCHIP BE LIABLE FOR ANY DIRECT, INDIREC
      +                          T,
    42                           ; INCIDENTAL, SPECIAL, EXEMPLARY, OR CONSEQUENTIAL DAMAGES (INCLUDING BUT NOT LIMITED TO
    43                           ; PROCUREMENT OF SUBSTITUTE GOODS OR SERVICES; LOSS OF USE, DATA OR PROFITS; OR BUSINESS
    44                           ; INTERRUPTION) HOWSOEVER CAUSED AND ON ANY THEORY OF LIABILITY, WHETHER IN CONTRACT, ST
      +                          RICT
    45                           ; LIABILITY, OR TORT (INCLUDING NEGLIGENCE OR OTHERWISE) ARISING IN ANY WAY OUT OF THE U
      +                          SE OF
    46                           ; THIS SOFTWARE, EVEN IF ADVISED OF THE POSSIBILITY OF SUCH DAMAGE.
    47                           ; 
    48                           ; 
    49                           ; Code-generator required, PIC16F1939 Definitions
    50                           ; 
    51                           ; SFR Addresses
    52     0000                     	;# 
    53     0001                     	;# 
    54     0002                     	;# 
    55     0003                     	;# 
    56     0004                     	;# 
    57     0005                     	;# 
    58     0006                     	;# 
    59     0007                     	;# 
    60     0008                     	;# 
    61     0009                     	;# 
    62     000A                     	;# 
    63     000B                     	;# 
    64     000C                     	;# 
    65     000D                     	;# 
    66     000E                     	;# 
    67     000F                     	;# 
    68     0010                     	;# 
    69     0011                     	;# 
    70     0012                     	;# 
    71     0013                     	;# 
    72     0015                     	;# 
    73     0016                     	;# 
    74     0016                     	;# 
    75     0017                     	;# 
    76     0018                     	;# 
    77     0019                     	;# 
    78     001A                     	;# 
    79     001B                     	;# 
    80     001C                     	;# 
    81     001E                     	;# 
    82     001F                     	;# 
    83     008C                     	;# 
    84     008D                     	;# 
    85     008E                     	;# 
    86     008F                     	;# 
    87     0090                     	;# 
    88     0091                     	;# 
    89     0092                     	;# 
    90     0093                     	;# 
    91     0095                     	;# 
    92     0096                     	;# 
    93     0097                     	;# 
    94     0098                     	;# 
    95     0099                     	;# 
    96     009A                     	;# 
    97     009B                     	;# 
    98     009B                     	;# 
    99     009C                     	;# 
   100     009D                     	;# 
   101     009E                     	;# 
   102     010C                     	;# 
   103     010D                     	;# 
   104     010E                     	;# 
   105     010F                     	;# 
   106     0110                     	;# 
   107     0111                     	;# 
   108     0112                     	;# 
   109     0113                     	;# 
   110     0114                     	;# 
   111     0115                     	;# 
   112     0116                     	;# 
   113     0117                     	;# 
   114     0118                     	;# 
   115     0119                     	;# 
   116     011A                     	;# 
   117     011B                     	;# 
   118     011D                     	;# 
   119     018C                     	;# 
   120     018D                     	;# 
   121     018F                     	;# 
   122     0190                     	;# 
   123     0191                     	;# 
   124     0191                     	;# 
   125     0192                     	;# 
   126     0193                     	;# 
   127     0193                     	;# 
   128     0193                     	;# 
   129     0194                     	;# 
   130     0195                     	;# 
   131     0196                     	;# 
   132     0199                     	;# 
   133     019A                     	;# 
   134     019B                     	;# 
   135     019B                     	;# 
   136     019B                     	;# 
   137     019B                     	;# 
   138     019C                     	;# 
   139     019C                     	;# 
   140     019D                     	;# 
   141     019E                     	;# 
   142     019F                     	;# 
   143     020D                     	;# 
   144     0210                     	;# 
   145     0211                     	;# 
   146     0212                     	;# 
   147     0213                     	;# 
   148     0214                     	;# 
   149     0215                     	;# 
   150     0215                     	;# 
   151     0216                     	;# 
   152     0217                     	;# 
   153     0291                     	;# 
   154     0291                     	;# 
   155     0292                     	;# 
   156     0293                     	;# 
   157     0294                     	;# 
   158     0295                     	;# 
   159     0295                     	;# 
   160     0296                     	;# 
   161     0298                     	;# 
   162     0298                     	;# 
   163     0299                     	;# 
   164     029A                     	;# 
   165     029B                     	;# 
   166     029C                     	;# 
   167     029C                     	;# 
   168     029D                     	;# 
   169     029E                     	;# 
   170     029F                     	;# 
   171     0311                     	;# 
   172     0311                     	;# 
   173     0312                     	;# 
   174     0313                     	;# 
   175     0314                     	;# 
   176     0315                     	;# 
   177     0315                     	;# 
   178     0316                     	;# 
   179     0318                     	;# 
   180     0318                     	;# 
   181     0319                     	;# 
   182     031A                     	;# 
   183     031C                     	;# 
   184     031C                     	;# 
   185     031D                     	;# 
   186     031E                     	;# 
   187     0394                     	;# 
   188     0395                     	;# 
   189     0396                     	;# 
   190     0415                     	;# 
   191     0416                     	;# 
   192     0417                     	;# 
   193     041C                     	;# 
   194     041D                     	;# 
   195     041E                     	;# 
   196     0791                     	;# 
   197     0792                     	;# 
   198     0793                     	;# 
   199     0794                     	;# 
   200     0795                     	;# 
   201     0798                     	;# 
   202     0799                     	;# 
   203     079A                     	;# 
   204     07A0                     	;# 
   205     07A1                     	;# 
   206     07A2                     	;# 
   207     07A3                     	;# 
   208     07A4                     	;# 
   209     07A5                     	;# 
   210     07A6                     	;# 
   211     07A7                     	;# 
   212     07A8                     	;# 
   213     07A9                     	;# 
   214     07AA                     	;# 
   215     07AB                     	;# 
   216     0FE4                     	;# 
   217     0FE5                     	;# 
   218     0FE6                     	;# 
   219     0FE7                     	;# 
   220     0FE8                     	;# 
   221     0FE9                     	;# 
   222     0FEA                     	;# 
   223     0FEB                     	;# 
   224     0FED                     	;# 
   225     0FEE                     	;# 
   226     0FEF                     	;# 
   227     0000                     	;# 
   228     0001                     	;# 
   229     0002                     	;# 
   230     0003                     	;# 
   231     0004                     	;# 
   232     0005                     	;# 
   233     0006                     	;# 
   234     0007                     	;# 
   235     0008                     	;# 
   236     0009                     	;# 
   237     000A                     	;# 
   238     000B                     	;# 
   239     000C                     	;# 
   240     000D                     	;# 
   241     000E                     	;# 
   242     000F                     	;# 
   243     0010                     	;# 
   244     0011                     	;# 
   245     0012                     	;# 
   246     0013                     	;# 
   247     0015                     	;# 
   248     0016                     	;# 
   249     0016                     	;# 
   250     0017                     	;# 
   251     0018                     	;# 
   252     0019                     	;# 
   253     001A                     	;# 
   254     001B                     	;# 
   255     001C                     	;# 
   256     001E                     	;# 
   257     001F                     	;# 
   258     008C                     	;# 
   259     008D                     	;# 
   260     008E                     	;# 
   261     008F                     	;# 
   262     0090                     	;# 
   263     0091                     	;# 
   264     0092                     	;# 
   265     0093                     	;# 
   266     0095                     	;# 
   267     0096                     	;# 
   268     0097                     	;# 
   269     0098                     	;# 
   270     0099                     	;# 
   271     009A                     	;# 
   272     009B                     	;# 
   273     009B                     	;# 
   274     009C                     	;# 
   275     009D                     	;# 
   276     009E                     	;# 
   277     010C                     	;# 
   278     010D                     	;# 
   279     010E                     	;# 
   280     010F                     	;# 
   281     0110                     	;# 
   282     0111                     	;# 
   283     0112                     	;# 
   284     0113                     	;# 
   285     0114                     	;# 
   286     0115                     	;# 
   287     0116                     	;# 
   288     0117                     	;# 
   289     0118                     	;# 
   290     0119                     	;# 
   291     011A                     	;# 
   292     011B                     	;# 
   293     011D                     	;# 
   294     018C                     	;# 
   295     018D                     	;# 
   296     018F                     	;# 
   297     0190                     	;# 
   298     0191                     	;# 
   299     0191                     	;# 
   300     0192                     	;# 
   301     0193                     	;# 
   302     0193                     	;# 
   303     0193                     	;# 
   304     0194                     	;# 
   305     0195                     	;# 
   306     0196                     	;# 
   307     0199                     	;# 
   308     019A                     	;# 
   309     019B                     	;# 
   310     019B                     	;# 
   311     019B                     	;# 
   312     019B                     	;# 
   313     019C                     	;# 
   314     019C                     	;# 
   315     019D                     	;# 
   316     019E                     	;# 
   317     019F                     	;# 
   318     020D                     	;# 
   319     0210                     	;# 
   320     0211                     	;# 
   321     0212                     	;# 
   322     0213                     	;# 
   323     0214                     	;# 
   324     0215                     	;# 
   325     0215                     	;# 
   326     0216                     	;# 
   327     0217                     	;# 
   328     0291                     	;# 
   329     0291                     	;# 
   330     0292                     	;# 
   331     0293                     	;# 
   332     0294                     	;# 
   333     0295                     	;# 
   334     0295                     	;# 
   335     0296                     	;# 
   336     0298                     	;# 
   337     0298                     	;# 
   338     0299                     	;# 
   339     029A                     	;# 
   340     029B                     	;# 
   341     029C                     	;# 
   342     029C                     	;# 
   343     029D                     	;# 
   344     029E                     	;# 
   345     029F                     	;# 
   346     0311                     	;# 
   347     0311                     	;# 
   348     0312                     	;# 
   349     0313                     	;# 
   350     0314                     	;# 
   351     0315                     	;# 
   352     0315                     	;# 
   353     0316                     	;# 
   354     0318                     	;# 
   355     0318                     	;# 
   356     0319                     	;# 
   357     031A                     	;# 
   358     031C                     	;# 
   359     031C                     	;# 
   360     031D                     	;# 
   361     031E                     	;# 
   362     0394                     	;# 
   363     0395                     	;# 
   364     0396                     	;# 
   365     0415                     	;# 
   366     0416                     	;# 
   367     0417                     	;# 
   368     041C                     	;# 
   369     041D                     	;# 
   370     041E                     	;# 
   371     0791                     	;# 
   372     0792                     	;# 
   373     0793                     	;# 
   374     0794                     	;# 
   375     0795                     	;# 
   376     0798                     	;# 
   377     0799                     	;# 
   378     079A                     	;# 
   379     07A0                     	;# 
   380     07A1                     	;# 
   381     07A2                     	;# 
   382     07A3                     	;# 
   383     07A4                     	;# 
   384     07A5                     	;# 
   385     07A6                     	;# 
   386     07A7                     	;# 
   387     07A8                     	;# 
   388     07A9                     	;# 
   389     07AA                     	;# 
   390     07AB                     	;# 
   391     0FE4                     	;# 
   392     0FE5                     	;# 
   393     0FE6                     	;# 
   394     0FE7                     	;# 
   395     0FE8                     	;# 
   396     0FE9                     	;# 
   397     0FEA                     	;# 
   398     0FEB                     	;# 
   399     0FED                     	;# 
   400     0FEE                     	;# 
   401     0FEF                     	;# 
   402     0000                     	;# 
   403     0001                     	;# 
   404     0002                     	;# 
   405     0003                     	;# 
   406     0004                     	;# 
   407     0005                     	;# 
   408     0006                     	;# 
   409     0007                     	;# 
   410     0008                     	;# 
   411     0009                     	;# 
   412     000A                     	;# 
   413     000B                     	;# 
   414     000C                     	;# 
   415     000D                     	;# 
   416     000E                     	;# 
   417     000F                     	;# 
   418     0010                     	;# 
   419     0011                     	;# 
   420     0012                     	;# 
   421     0013                     	;# 
   422     0015                     	;# 
   423     0016                     	;# 
   424     0016                     	;# 
   425     0017                     	;# 
   426     0018                     	;# 
   427     0019                     	;# 
   428     001A                     	;# 
   429     001B                     	;# 
   430     001C                     	;# 
   431     001E                     	;# 
   432     001F                     	;# 
   433     008C                     	;# 
   434     008D                     	;# 
   435     008E                     	;# 
   436     008F                     	;# 
   437     0090                     	;# 
   438     0091                     	;# 
   439     0092                     	;# 
   440     0093                     	;# 
   441     0095                     	;# 
   442     0096                     	;# 
   443     0097                     	;# 
   444     0098                     	;# 
   445     0099                     	;# 
   446     009A                     	;# 
   447     009B                     	;# 
   448     009B                     	;# 
   449     009C                     	;# 
   450     009D                     	;# 
   451     009E                     	;# 
   452     010C                     	;# 
   453     010D                     	;# 
   454     010E                     	;# 
   455     010F                     	;# 
   456     0110                     	;# 
   457     0111                     	;# 
   458     0112                     	;# 
   459     0113                     	;# 
   460     0114                     	;# 
   461     0115                     	;# 
   462     0116                     	;# 
   463     0117                     	;# 
   464     0118                     	;# 
   465     0119                     	;# 
   466     011A                     	;# 
   467     011B                     	;# 
   468     011D                     	;# 
   469     018C                     	;# 
   470     018D                     	;# 
   471     018F                     	;# 
   472     0190                     	;# 
   473     0191                     	;# 
   474     0191                     	;# 
   475     0192                     	;# 
   476     0193                     	;# 
   477     0193                     	;# 
   478     0193                     	;# 
   479     0194                     	;# 
   480     0195                     	;# 
   481     0196                     	;# 
   482     0199                     	;# 
   483     019A                     	;# 
   484     019B                     	;# 
   485     019B                     	;# 
   486     019B                     	;# 
   487     019B                     	;# 
   488     019C                     	;# 
   489     019C                     	;# 
   490     019D                     	;# 
   491     019E                     	;# 
   492     019F                     	;# 
   493     020D                     	;# 
   494     0210                     	;# 
   495     0211                     	;# 
   496     0212                     	;# 
   497     0213                     	;# 
   498     0214                     	;# 
   499     0215                     	;# 
   500     0215                     	;# 
   501     0216                     	;# 
   502     0217                     	;# 
   503     0291                     	;# 
   504     0291                     	;# 
   505     0292                     	;# 
   506     0293                     	;# 
   507     0294                     	;# 
   508     0295                     	;# 
   509     0295                     	;# 
   510     0296                     	;# 
   511     0298                     	;# 
   512     0298                     	;# 
   513     0299                     	;# 
   514     029A                     	;# 
   515     029B                     	;# 
   516     029C                     	;# 
   517     029C                     	;# 
   518     029D                     	;# 
   519     029E                     	;# 
   520     029F                     	;# 
   521     0311                     	;# 
   522     0311                     	;# 
   523     0312                     	;# 
   524     0313                     	;# 
   525     0314                     	;# 
   526     0315                     	;# 
   527     0315                     	;# 
   528     0316                     	;# 
   529     0318                     	;# 
   530     0318                     	;# 
   531     0319                     	;# 
   532     031A                     	;# 
   533     031C                     	;# 
   534     031C                     	;# 
   535     031D                     	;# 
   536     031E                     	;# 
   537     0394                     	;# 
   538     0395                     	;# 
   539     0396                     	;# 
   540     0415                     	;# 
   541     0416                     	;# 
   542     0417                     	;# 
   543     041C                     	;# 
   544     041D                     	;# 
   545     041E                     	;# 
   546     0791                     	;# 
   547     0792                     	;# 
   548     0793                     	;# 
   549     0794                     	;# 
   550     0795                     	;# 
   551     0798                     	;# 
   552     0799                     	;# 
   553     079A                     	;# 
   554     07A0                     	;# 
   555     07A1                     	;# 
   556     07A2                     	;# 
   557     07A3                     	;# 
   558     07A4                     	;# 
   559     07A5                     	;# 
   560     07A6                     	;# 
   561     07A7                     	;# 
   562     07A8                     	;# 
   563     07A9                     	;# 
   564     07AA                     	;# 
   565     07AB                     	;# 
   566     0FE4                     	;# 
   567     0FE5                     	;# 
   568     0FE6                     	;# 
   569     0FE7                     	;# 
   570     0FE8                     	;# 
   571     0FE9                     	;# 
   572     0FEA                     	;# 
   573     0FEB                     	;# 
   574     0FED                     	;# 
   575     0FEE                     	;# 
   576     0FEF                     	;# 
   577     0000                     	;# 
   578     0001                     	;# 
   579     0002                     	;# 
   580     0003                     	;# 
   581     0004                     	;# 
   582     0005                     	;# 
   583     0006                     	;# 
   584     0007                     	;# 
   585     0008                     	;# 
   586     0009                     	;# 
   587     000A                     	;# 
   588     000B                     	;# 
   589     000C                     	;# 
   590     000D                     	;# 
   591     000E                     	;# 
   592     000F                     	;# 
   593     0010                     	;# 
   594     0011                     	;# 
   595     0012                     	;# 
   596     0013                     	;# 
   597     0015                     	;# 
   598     0016                     	;# 
   599     0016                     	;# 
   600     0017                     	;# 
   601     0018                     	;# 
   602     0019                     	;# 
   603     001A                     	;# 
   604     001B                     	;# 
   605     001C                     	;# 
   606     001E                     	;# 
   607     001F                     	;# 
   608     008C                     	;# 
   609     008D                     	;# 
   610     008E                     	;# 
   611     008F                     	;# 
   612     0090                     	;# 
   613     0091                     	;# 
   614     0092                     	;# 
   615     0093                     	;# 
   616     0095                     	;# 
   617     0096                     	;# 
   618     0097                     	;# 
   619     0098                     	;# 
   620     0099                     	;# 
   621     009A                     	;# 
   622     009B                     	;# 
   623     009B                     	;# 
   624     009C                     	;# 
   625     009D                     	;# 
   626     009E                     	;# 
   627     010C                     	;# 
   628     010D                     	;# 
   629     010E                     	;# 
   630     010F                     	;# 
   631     0110                     	;# 
   632     0111                     	;# 
   633     0112                     	;# 
   634     0113                     	;# 
   635     0114                     	;# 
   636     0115                     	;# 
   637     0116                     	;# 
   638     0117                     	;# 
   639     0118                     	;# 
   640     0119                     	;# 
   641     011A                     	;# 
   642     011B                     	;# 
   643     011D                     	;# 
   644     018C                     	;# 
   645     018D                     	;# 
   646     018F                     	;# 
   647     0190                     	;# 
   648     0191                     	;# 
   649     0191                     	;# 
   650     0192                     	;# 
   651     0193                     	;# 
   652     0193                     	;# 
   653     0193                     	;# 
   654     0194                     	;# 
   655     0195                     	;# 
   656     0196                     	;# 
   657     0199                     	;# 
   658     019A                     	;# 
   659     019B                     	;# 
   660     019B                     	;# 
   661     019B                     	;# 
   662     019B                     	;# 
   663     019C                     	;# 
   664     019C                     	;# 
   665     019D                     	;# 
   666     019E                     	;# 
   667     019F                     	;# 
   668     020D                     	;# 
   669     0210                     	;# 
   670     0211                     	;# 
   671     0212                     	;# 
   672     0213                     	;# 
   673     0214                     	;# 
   674     0215                     	;# 
   675     0215                     	;# 
   676     0216                     	;# 
   677     0217                     	;# 
   678     0291                     	;# 
   679     0291                     	;# 
   680     0292                     	;# 
   681     0293                     	;# 
   682     0294                     	;# 
   683     0295                     	;# 
   684     0295                     	;# 
   685     0296                     	;# 
   686     0298                     	;# 
   687     0298                     	;# 
   688     0299                     	;# 
   689     029A                     	;# 
   690     029B                     	;# 
   691     029C                     	;# 
   692     029C                     	;# 
   693     029D                     	;# 
   694     029E                     	;# 
   695     029F                     	;# 
   696     0311                     	;# 
   697     0311                     	;# 
   698     0312                     	;# 
   699     0313                     	;# 
   700     0314                     	;# 
   701     0315                     	;# 
   702     0315                     	;# 
   703     0316                     	;# 
   704     0318                     	;# 
   705     0318                     	;# 
   706     0319                     	;# 
   707     031A                     	;# 
   708     031C                     	;# 
   709     031C                     	;# 
   710     031D                     	;# 
   711     031E                     	;# 
   712     0394                     	;# 
   713     0395                     	;# 
   714     0396                     	;# 
   715     0415                     	;# 
   716     0416                     	;# 
   717     0417                     	;# 
   718     041C                     	;# 
   719     041D                     	;# 
   720     041E                     	;# 
   721     0791                     	;# 
   722     0792                     	;# 
   723     0793                     	;# 
   724     0794                     	;# 
   725     0795                     	;# 
   726     0798                     	;# 
   727     0799                     	;# 
   728     079A                     	;# 
   729     07A0                     	;# 
   730     07A1                     	;# 
   731     07A2                     	;# 
   732     07A3                     	;# 
   733     07A4                     	;# 
   734     07A5                     	;# 
   735     07A6                     	;# 
   736     07A7                     	;# 
   737     07A8                     	;# 
   738     07A9                     	;# 
   739     07AA                     	;# 
   740     07AB                     	;# 
   741     0FE4                     	;# 
   742     0FE5                     	;# 
   743     0FE6                     	;# 
   744     0FE7                     	;# 
   745     0FE8                     	;# 
   746     0FE9                     	;# 
   747     0FEA                     	;# 
   748     0FEB                     	;# 
   749     0FED                     	;# 
   750     0FEE                     	;# 
   751     0FEF                     	;# 
   752                           
   753                           	psect	idataCOMMON
   754     05CB                     __pidataCOMMON:
   755                           
   756                           ;initializer for _catodo
   757     05CB  3401               	retlw	1
   758     000C                     _PORTAbits	set	12
   759     000E                     _PORTC	set	14
   760     000F                     _PORTD	set	15
   761     000D                     _PORTB	set	13
   762     000D                     _PORTBbits	set	13
   763     008E                     _TRISCbits	set	142
   764     008C                     _TRISAbits	set	140
   765     008C                     _TRISA	set	140
   766     008E                     _TRISC	set	142
   767     008F                     _TRISD	set	143
   768     008D                     _TRISB	set	141
   769     0095                     _OPTION_REGbits	set	149
   770     010E                     _LATCbits	set	270
   771     010C                     _LATAbits	set	268
   772     010F                     _LATD	set	271
   773     018C                     _ANSELA	set	396
   774     018D                     _ANSELB	set	397
   775     020D                     _WPUB	set	525
   776                           
   777                           	psect	cinit
   778     07F2                     start_initialization:	
   779                           ; #config settings
   780                           
   781     07F2                     __initialization:
   782                           
   783                           ; Initialize objects allocated to COMMON
   784     07F2  3185  25CB  3187   	fcall	__pidataCOMMON	;fetch initializer
   785     07F5  00FC               	movwf	__pdataCOMMON& (0+127)
   786                           
   787                           ; Clear objects allocated to COMMON
   788     07F6  01F0               	clrf	__pbssCOMMON& (0+127)
   789     07F7  01F1               	clrf	(__pbssCOMMON+1)& (0+127)
   790     07F8  01F2               	clrf	(__pbssCOMMON+2)& (0+127)
   791     07F9  01F3               	clrf	(__pbssCOMMON+3)& (0+127)
   792     07FA  01F4               	clrf	(__pbssCOMMON+4)& (0+127)
   793     07FB  01F5               	clrf	(__pbssCOMMON+5)& (0+127)
   794     07FC  01F6               	clrf	(__pbssCOMMON+6)& (0+127)
   795     07FD                     end_of_initialization:	
   796                           ;End of C runtime variable initialization code
   797                           
   798     07FD                     __end_of__initialization:
   799     07FD  0020               	movlb	0
   800     07FE  3185  2DD1         	ljmp	_main	;jump to C main() function
   801                           
   802                           	psect	bssCOMMON
   803     0070                     __pbssCOMMON:
   804     0070                     _unidad:
   805     0070                     	ds	2
   806     0072                     _decena:
   807     0072                     	ds	2
   808     0074                     _Nbb2:
   809     0074                     	ds	1
   810     0075                     _Nbb1:
   811     0075                     	ds	1
   812     0076                     _cont:
   813     0076                     	ds	1
   814                           
   815                           	psect	dataCOMMON
   816     007C                     __pdataCOMMON:
   817     007C                     _catodo:
   818     007C                     	ds	1
   819                           
   820                           	psect	cstackCOMMON
   821     0077                     __pcstackCOMMON:
   822     0077                     ?_display_cc:
   823     0077                     ??_display_cc:	
   824                           ; 1 bytes @ 0x0
   825                           
   826     0077                     ?_display_init:	
   827                           ; 1 bytes @ 0x0
   828                           
   829     0077                     ??_display_init:	
   830                           ; 1 bytes @ 0x0
   831                           
   832     0077                     ?_punto11:	
   833                           ; 1 bytes @ 0x0
   834                           
   835     0077                     ?_set_up:	
   836                           ; 1 bytes @ 0x0
   837                           
   838     0077                     ??_set_up:	
   839                           ; 1 bytes @ 0x0
   840                           
   841     0077                     ?_loop:	
   842                           ; 1 bytes @ 0x0
   843                           
   844     0077                     ?_main:	
   845                           ; 1 bytes @ 0x0
   846                           
   847                           
   848                           ; 1 bytes @ 0x0
   849     0077                     	ds	2
   850     0079                     display_cc@dig:
   851                           
   852                           ; 1 bytes @ 0x2
   853     0079                     	ds	1
   854     007A                     ??_punto11:
   855                           
   856                           ; 1 bytes @ 0x3
   857     007A                     	ds	2
   858     007C                     ??_loop:
   859     007C                     ??_main:	
   860                           ; 1 bytes @ 0x5
   861                           
   862                           
   863                           	psect	maintext
   864     05D1                     __pmaintext:	
   865                           ; 1 bytes @ 0x5
   866 ;;
   867 ;;Main: autosize = 0, tempsize = 0, incstack = 0, save=0
   868 ;;
   869 ;; *************** function _main *****************
   870 ;; Defined at:
   871 ;;		line 140 in file "main.c"
   872 ;; Parameters:    Size  Location     Type
   873 ;;		None
   874 ;; Auto vars:     Size  Location     Type
   875 ;;		None
   876 ;; Return value:  Size  Location     Type
   877 ;;                  1    wreg      void 
   878 ;; Registers used:
   879 ;;		wreg, fsr0l, fsr0h, status,2, status,0, pclath, cstack
   880 ;; Tracked objects:
   881 ;;		On entry : B1F/0
   882 ;;		On exit  : 0/0
   883 ;;		Unchanged: 0/0
   884 ;; Data sizes:     COMMON   BANK0   BANK1   BANK2   BANK3   BANK4   BANK5   BANK6   BANK7   BANK8   BANK9  BANK10  BANK1
      +1  BANK12
   885 ;;      Params:         0       0       0       0       0       0       0       0       0       0       0       0       
      +0       0
   886 ;;      Locals:         0       0       0       0       0       0       0       0       0       0       0       0       
      +0       0
   887 ;;      Temps:          0       0       0       0       0       0       0       0       0       0       0       0       
      +0       0
   888 ;;      Totals:         0       0       0       0       0       0       0       0       0       0       0       0       
      +0       0
   889 ;;Total ram usage:        0 bytes
   890 ;; Hardware stack levels required when called: 3
   891 ;; This function calls:
   892 ;;		_loop
   893 ;;		_set_up
   894 ;; This function is called by:
   895 ;;		Startup code after reset
   896 ;; This function uses a non-reentrant model
   897 ;;
   898                           
   899     05D1                     _main:	
   900                           ;psect for function _main
   901                           
   902     05D1                     l835:	
   903                           ;incstack = 0
   904                           ; Regs used in _main: [wreg-fsr0h+status,2+status,0+pclath+cstack]
   905                           
   906                           
   907                           ;main.c: 142:     set_up();
   908     05D1  3185  25E2  3185   	fcall	_set_up
   909     05D4                     l837:
   910                           
   911                           ;main.c: 143:     loop();
   912     05D4  3185  25CC  3185   	fcall	_loop
   913     05D7                     l86:
   914     05D7  3180  2802         	ljmp	start
   915     05D9                     __end_of_main:
   916                           
   917                           	psect	text1
   918     05E2                     __ptext1:	
   919 ;; *************** function _set_up *****************
   920 ;; Defined at:
   921 ;;		line 64 in file "main.c"
   922 ;; Parameters:    Size  Location     Type
   923 ;;		None
   924 ;; Auto vars:     Size  Location     Type
   925 ;;		None
   926 ;; Return value:  Size  Location     Type
   927 ;;                  1    wreg      void 
   928 ;; Registers used:
   929 ;;		wreg, status,2, status,0, pclath, cstack
   930 ;; Tracked objects:
   931 ;;		On entry : 0/0
   932 ;;		On exit  : 0/0
   933 ;;		Unchanged: 0/0
   934 ;; Data sizes:     COMMON   BANK0   BANK1   BANK2   BANK3   BANK4   BANK5   BANK6   BANK7   BANK8   BANK9  BANK10  BANK1
      +1  BANK12
   935 ;;      Params:         0       0       0       0       0       0       0       0       0       0       0       0       
      +0       0
   936 ;;      Locals:         0       0       0       0       0       0       0       0       0       0       0       0       
      +0       0
   937 ;;      Temps:          0       0       0       0       0       0       0       0       0       0       0       0       
      +0       0
   938 ;;      Totals:         0       0       0       0       0       0       0       0       0       0       0       0       
      +0       0
   939 ;;Total ram usage:        0 bytes
   940 ;; Hardware stack levels used: 1
   941 ;; Hardware stack levels required when called: 1
   942 ;; This function calls:
   943 ;;		_display_init
   944 ;; This function is called by:
   945 ;;		_main
   946 ;; This function uses a non-reentrant model
   947 ;;
   948                           
   949     05E2                     _set_up:	
   950                           ;psect for function _set_up
   951                           
   952     05E2                     l779:	
   953                           ;incstack = 0
   954                           ; Regs used in _set_up: [wreg+status,2+status,0+pclath+cstack]
   955                           
   956                           
   957                           ;main.c: 68:     OPTION_REGbits.nWPUEN = 0;
   958     05E2  0021               	movlb	1	; select bank1
   959     05E3  1395               	bcf	21,7	;volatile
   960     05E4                     l781:
   961                           
   962                           ;main.c: 69:     WPUB = 0xFF;
   963     05E4  30FF               	movlw	255
   964     05E5  0024               	movlb	4	; select bank4
   965     05E6  008D               	movwf	13	;volatile
   966                           
   967                           ;main.c: 72:     TRISB = 0xFF;
   968     05E7  30FF               	movlw	255
   969     05E8  0021               	movlb	1	; select bank1
   970     05E9  008D               	movwf	13	;volatile
   971                           
   972                           ;main.c: 73:     PORTB = 0xFF;
   973     05EA  30FF               	movlw	255
   974     05EB  0020               	movlb	0	; select bank0
   975     05EC  008D               	movwf	13	;volatile
   976     05ED                     l783:
   977                           
   978                           ;main.c: 74:     ANSELB = 0x00;
   979     05ED  0023               	movlb	3	; select bank3
   980     05EE  018D               	clrf	13	;volatile
   981     05EF                     l785:
   982                           
   983                           ;main.c: 77:     TRISD = TRISC = PORTD = PORTC = 0x00;
   984     05EF  0020               	movlb	0	; select bank0
   985     05F0  018E               	clrf	14	;volatile
   986     05F1  018F               	clrf	15	;volatile
   987     05F2  0021               	movlb	1	; select bank1
   988     05F3  018E               	clrf	14	;volatile
   989     05F4  018F               	clrf	15	;volatile
   990                           
   991                           ;main.c: 80:     TRISA = 0xFF;
   992     05F5  30FF               	movlw	255
   993     05F6  008C               	movwf	12	;volatile
   994     05F7                     l787:
   995                           
   996                           ;main.c: 81:     TRISAbits.TRISA4 = 0;
   997     05F7  120C               	bcf	12,4	;volatile
   998     05F8                     l789:
   999                           
  1000                           ;main.c: 82:     TRISAbits.TRISA5 = 0;
  1001     05F8  128C               	bcf	12,5	;volatile
  1002     05F9                     l791:
  1003                           
  1004                           ;main.c: 83:     ANSELA = 0x00;
  1005     05F9  0023               	movlb	3	; select bank3
  1006     05FA  018C               	clrf	12	;volatile
  1007     05FB                     l793:
  1008                           
  1009                           ;main.c: 87:     display_init();
  1010     05FB  3185  25D9  3185   	fcall	_display_init
  1011     05FE                     l66:
  1012     05FE  0008               	return
  1013     05FF                     __end_of_set_up:
  1014                           
  1015                           	psect	text2
  1016     05D9                     __ptext2:	
  1017 ;; *************** function _display_init *****************
  1018 ;; Defined at:
  1019 ;;		line 7 in file "DisplaySeven.c"
  1020 ;; Parameters:    Size  Location     Type
  1021 ;;		None
  1022 ;; Auto vars:     Size  Location     Type
  1023 ;;		None
  1024 ;; Return value:  Size  Location     Type
  1025 ;;                  1    wreg      void 
  1026 ;; Registers used:
  1027 ;;		None
  1028 ;; Tracked objects:
  1029 ;;		On entry : 0/0
  1030 ;;		On exit  : 0/0
  1031 ;;		Unchanged: 0/0
  1032 ;; Data sizes:     COMMON   BANK0   BANK1   BANK2   BANK3   BANK4   BANK5   BANK6   BANK7   BANK8   BANK9  BANK10  BANK1
      +1  BANK12
  1033 ;;      Params:         0       0       0       0       0       0       0       0       0       0       0       0       
      +0       0
  1034 ;;      Locals:         0       0       0       0       0       0       0       0       0       0       0       0       
      +0       0
  1035 ;;      Temps:          0       0       0       0       0       0       0       0       0       0       0       0       
      +0       0
  1036 ;;      Totals:         0       0       0       0       0       0       0       0       0       0       0       0       
      +0       0
  1037 ;;Total ram usage:        0 bytes
  1038 ;; Hardware stack levels used: 1
  1039 ;; This function calls:
  1040 ;;		Nothing
  1041 ;; This function is called by:
  1042 ;;		_set_up
  1043 ;; This function uses a non-reentrant model
  1044 ;;
  1045                           
  1046     05D9                     _display_init:	
  1047                           ;psect for function _display_init
  1048                           
  1049     05D9                     l777:	
  1050                           ;incstack = 0
  1051                           ; Regs used in _display_init: []
  1052                           
  1053                           
  1054                           ;DisplaySeven.c: 9:     TRISCbits.TRISC0 = 0;
  1055     05D9  0021               	movlb	1	; select bank1
  1056     05DA  100E               	bcf	14,0	;volatile
  1057                           
  1058                           ;DisplaySeven.c: 10:     TRISCbits.TRISC1 = 0;
  1059     05DB  108E               	bcf	14,1	;volatile
  1060                           
  1061                           ;DisplaySeven.c: 11:     TRISCbits.TRISC2 = 0;
  1062     05DC  110E               	bcf	14,2	;volatile
  1063                           
  1064                           ;DisplaySeven.c: 12:     TRISCbits.TRISC3 = 0;
  1065     05DD  118E               	bcf	14,3	;volatile
  1066                           
  1067                           ;DisplaySeven.c: 13:     TRISCbits.TRISC4 = 0;
  1068     05DE  120E               	bcf	14,4	;volatile
  1069                           
  1070                           ;DisplaySeven.c: 14:     TRISCbits.TRISC5 = 0;
  1071     05DF  128E               	bcf	14,5	;volatile
  1072                           
  1073                           ;DisplaySeven.c: 15:     TRISCbits.TRISC6 = 0;
  1074     05E0  130E               	bcf	14,6	;volatile
  1075     05E1                     l95:
  1076     05E1  0008               	return
  1077     05E2                     __end_of_display_init:
  1078                           
  1079                           	psect	text3
  1080     05CC                     __ptext3:	
  1081 ;; *************** function _loop *****************
  1082 ;; Defined at:
  1083 ;;		line 129 in file "main.c"
  1084 ;; Parameters:    Size  Location     Type
  1085 ;;		None
  1086 ;; Auto vars:     Size  Location     Type
  1087 ;;		None
  1088 ;; Return value:  Size  Location     Type
  1089 ;;                  1    wreg      void 
  1090 ;; Registers used:
  1091 ;;		wreg, fsr0l, fsr0h, status,2, status,0, pclath, cstack
  1092 ;; Tracked objects:
  1093 ;;		On entry : 0/0
  1094 ;;		On exit  : 0/0
  1095 ;;		Unchanged: 0/0
  1096 ;; Data sizes:     COMMON   BANK0   BANK1   BANK2   BANK3   BANK4   BANK5   BANK6   BANK7   BANK8   BANK9  BANK10  BANK1
      +1  BANK12
  1097 ;;      Params:         0       0       0       0       0       0       0       0       0       0       0       0       
      +0       0
  1098 ;;      Locals:         0       0       0       0       0       0       0       0       0       0       0       0       
      +0       0
  1099 ;;      Temps:          0       0       0       0       0       0       0       0       0       0       0       0       
      +0       0
  1100 ;;      Totals:         0       0       0       0       0       0       0       0       0       0       0       0       
      +0       0
  1101 ;;Total ram usage:        0 bytes
  1102 ;; Hardware stack levels used: 1
  1103 ;; Hardware stack levels required when called: 2
  1104 ;; This function calls:
  1105 ;;		_punto11
  1106 ;; This function is called by:
  1107 ;;		_main
  1108 ;; This function uses a non-reentrant model
  1109 ;;
  1110                           
  1111     05CC                     _loop:	
  1112                           ;psect for function _loop
  1113                           
  1114     05CC                     l78:	
  1115                           ;incstack = 0
  1116                           ; Regs used in _loop: [wreg-fsr0h+status,2+status,0+pclath+cstack]
  1117                           ;main.c: 132:     while (1) {
  1118                           
  1119     05CC                     l813:
  1120                           
  1121                           ;main.c: 134:         punto11();
  1122     05CC  3185  25FF  3185   	fcall	_punto11
  1123     05CF  2DCC               	goto	l78
  1124     05D0  0008               	return
  1125     05D1                     __end_of_loop:
  1126                           
  1127                           	psect	text4
  1128     05FF                     __ptext4:	
  1129 ;; *************** function _punto11 *****************
  1130 ;; Defined at:
  1131 ;;		line 27 in file "main.c"
  1132 ;; Parameters:    Size  Location     Type
  1133 ;;		None
  1134 ;; Auto vars:     Size  Location     Type
  1135 ;;		None
  1136 ;; Return value:  Size  Location     Type
  1137 ;;                  1    wreg      void 
  1138 ;; Registers used:
  1139 ;;		wreg, fsr0l, fsr0h, status,2, status,0, pclath, cstack
  1140 ;; Tracked objects:
  1141 ;;		On entry : 0/0
  1142 ;;		On exit  : 0/0
  1143 ;;		Unchanged: 0/0
  1144 ;; Data sizes:     COMMON   BANK0   BANK1   BANK2   BANK3   BANK4   BANK5   BANK6   BANK7   BANK8   BANK9  BANK10  BANK1
      +1  BANK12
  1145 ;;      Params:         0       0       0       0       0       0       0       0       0       0       0       0       
      +0       0
  1146 ;;      Locals:         0       0       0       0       0       0       0       0       0       0       0       0       
      +0       0
  1147 ;;      Temps:          2       0       0       0       0       0       0       0       0       0       0       0       
      +0       0
  1148 ;;      Totals:         2       0       0       0       0       0       0       0       0       0       0       0       
      +0       0
  1149 ;;Total ram usage:        2 bytes
  1150 ;; Hardware stack levels used: 1
  1151 ;; Hardware stack levels required when called: 1
  1152 ;; This function calls:
  1153 ;;		_display_cc
  1154 ;; This function is called by:
  1155 ;;		_loop
  1156 ;; This function uses a non-reentrant model
  1157 ;;
  1158                           
  1159     05FF                     _punto11:	
  1160                           ;psect for function _punto11
  1161                           
  1162     05FF                     l741:	
  1163                           ;incstack = 0
  1164                           ; Regs used in _punto11: [wreg-fsr0h+status,2+status,0+pclath+cstack]
  1165                           
  1166                           
  1167                           ;main.c: 28:     if (!PORTBbits.RB0) {
  1168     05FF  0020               	movlb	0	; select bank0
  1169     0600  180D               	btfsc	13,0	;volatile
  1170     0601  2E03               	goto	u491
  1171     0602  2E04               	goto	u490
  1172     0603                     u491:
  1173     0603  2E06               	goto	l745
  1174     0604                     u490:
  1175     0604                     l743:
  1176                           
  1177                           ;main.c: 29:         LATD = 0x00;
  1178     0604  0022               	movlb	2	; select bank2
  1179     0605  018F               	clrf	15	;volatile
  1180     0606                     l745:
  1181                           
  1182                           ;main.c: 32:     if (!PORTBbits.RB1) {
  1183     0606  0020               	movlb	0	; select bank0
  1184     0607  188D               	btfsc	13,1	;volatile
  1185     0608  2E0A               	goto	u501
  1186     0609  2E0B               	goto	u500
  1187     060A                     u501:
  1188     060A  2E22               	goto	l753
  1189     060B                     u500:
  1190     060B                     l747:
  1191                           
  1192                           ;main.c: 33:         LATD = 0x00;
  1193     060B  0022               	movlb	2	; select bank2
  1194     060C  018F               	clrf	15	;volatile
  1195     060D                     l749:
  1196                           
  1197                           ;main.c: 34:         _delay((unsigned long)((50)*(20000000UL/4000.0)));
  1198     060D  3002               	movlw	2
  1199     060E  00FB               	movwf	??_punto11+1
  1200     060F  3045               	movlw	69
  1201     0610  00FA               	movwf	??_punto11
  1202     0611  30AA               	movlw	170
  1203     0612                     u827:
  1204     0612  0B89               	decfsz	9,f
  1205     0613  2E12               	goto	u827
  1206     0614  0BFA               	decfsz	??_punto11,f
  1207     0615  2E12               	goto	u827
  1208     0616  0BFB               	decfsz	??_punto11+1,f
  1209     0617  2E12               	goto	u827
  1210     0618                     l751:
  1211                           
  1212                           ;main.c: 35:         LATD = (1 << cont);
  1213     0618  3001               	movlw	1
  1214     0619  00FA               	movwf	??_punto11
  1215     061A  0A76               	incf	_cont,w
  1216     061B  2E1D               	goto	u514
  1217     061C                     u515:
  1218     061C  35FA               	lslf	??_punto11,f
  1219     061D                     u514:
  1220     061D  0B89               	decfsz	9,f
  1221     061E  2E1C               	goto	u515
  1222     061F  087A               	movf	??_punto11,w
  1223     0620  0022               	movlb	2	; select bank2
  1224     0621  008F               	movwf	15	;volatile
  1225     0622                     l753:
  1226                           
  1227                           ;main.c: 38:     if (!PORTBbits.RB2) {
  1228     0622  0020               	movlb	0	; select bank0
  1229     0623  190D               	btfsc	13,2	;volatile
  1230     0624  2E26               	goto	u521
  1231     0625  2E27               	goto	u520
  1232     0626                     u521:
  1233     0626  2E2D               	goto	l54
  1234     0627                     u520:
  1235     0627                     l755:
  1236                           
  1237                           ;main.c: 39:         cont++;
  1238     0627  3001               	movlw	1
  1239     0628  00FA               	movwf	??_punto11
  1240     0629  087A               	movf	??_punto11,w
  1241     062A  07F6               	addwf	_cont,f
  1242     062B                     l757:
  1243                           
  1244                           ;main.c: 40:         LATD = 0x00;
  1245     062B  0022               	movlb	2	; select bank2
  1246     062C  018F               	clrf	15	;volatile
  1247     062D                     l54:
  1248     062D  0020               	movlb	0	; select bank0
  1249     062E  1D0D               	btfss	13,2	;volatile
  1250     062F  2E31               	goto	u531
  1251     0630  2E32               	goto	u530
  1252     0631                     u531:
  1253     0631  2E2D               	goto	l54
  1254     0632                     u530:
  1255     0632                     l56:
  1256                           
  1257                           ;main.c: 44:     if (!PORTBbits.RB3) {
  1258     0632  198D               	btfsc	13,3	;volatile
  1259     0633  2E35               	goto	u541
  1260     0634  2E36               	goto	u540
  1261     0635                     u541:
  1262     0635  2E3C               	goto	l58
  1263     0636                     u540:
  1264     0636                     l759:
  1265                           
  1266                           ;main.c: 45:         cont--;
  1267     0636  30FF               	movlw	255
  1268     0637  00FA               	movwf	??_punto11
  1269     0638  087A               	movf	??_punto11,w
  1270     0639  07F6               	addwf	_cont,f
  1271     063A                     l761:
  1272                           
  1273                           ;main.c: 46:         LATD = 0x00;
  1274     063A  0022               	movlb	2	; select bank2
  1275     063B  018F               	clrf	15	;volatile
  1276     063C                     l58:
  1277     063C  0020               	movlb	0	; select bank0
  1278     063D  1D8D               	btfss	13,3	;volatile
  1279     063E  2E40               	goto	u551
  1280     063F  2E41               	goto	u550
  1281     0640                     u551:
  1282     0640  2E3C               	goto	l58
  1283     0641                     u550:
  1284     0641                     l763:
  1285                           
  1286                           ;main.c: 50:     if (cont > 7) {
  1287     0641  0876               	movf	_cont,w
  1288     0642  3A80               	xorlw	128
  1289     0643  3E78               	addlw	-136
  1290     0644  1C03               	skipc
  1291     0645  2E47               	goto	u561
  1292     0646  2E48               	goto	u560
  1293     0647                     u561:
  1294     0647  2E4B               	goto	l767
  1295     0648                     u560:
  1296     0648                     l765:
  1297                           
  1298                           ;main.c: 51:         cont = 0;
  1299     0648  01F6               	clrf	_cont
  1300                           
  1301                           ;main.c: 52:         LATD = 0x00;
  1302     0649  0022               	movlb	2	; select bank2
  1303     064A  018F               	clrf	15	;volatile
  1304     064B                     l767:
  1305                           
  1306                           ;main.c: 55:     if (cont < 0) {
  1307     064B  1FF6               	btfss	_cont,7
  1308     064C  2E4E               	goto	u571
  1309     064D  2E4F               	goto	u570
  1310     064E                     u571:
  1311     064E  2E53               	goto	l773
  1312     064F                     u570:
  1313     064F                     l769:
  1314                           
  1315                           ;main.c: 56:         cont = 7;
  1316     064F  3007               	movlw	7
  1317     0650  00F6               	movwf	_cont
  1318     0651                     l771:
  1319                           
  1320                           ;main.c: 57:         LATD = 0x00;
  1321     0651  0022               	movlb	2	; select bank2
  1322     0652  018F               	clrf	15	;volatile
  1323     0653                     l773:
  1324                           
  1325                           ;main.c: 59:     display_cc(cont);
  1326     0653  0876               	movf	_cont,w
  1327     0654  3186  2663  3185   	fcall	_display_cc
  1328     0657                     l775:
  1329                           
  1330                           ;main.c: 60:     _delay((unsigned long)((200)*(20000000UL/4000.0)));
  1331     0657  3006               	movlw	6
  1332     0658  00FB               	movwf	??_punto11+1
  1333     0659  3013               	movlw	19
  1334     065A  00FA               	movwf	??_punto11
  1335     065B  30AE               	movlw	174
  1336     065C                     u837:
  1337     065C  0B89               	decfsz	9,f
  1338     065D  2E5C               	goto	u837
  1339     065E  0BFA               	decfsz	??_punto11,f
  1340     065F  2E5C               	goto	u837
  1341     0660  0BFB               	decfsz	??_punto11+1,f
  1342     0661  2E5C               	goto	u837
  1343     0662                     l63:
  1344     0662  0008               	return
  1345     0663                     __end_of_punto11:
  1346                           
  1347                           	psect	text5
  1348     0663                     __ptext5:	
  1349 ;; *************** function _display_cc *****************
  1350 ;; Defined at:
  1351 ;;		line 19 in file "DisplaySeven.c"
  1352 ;; Parameters:    Size  Location     Type
  1353 ;;  dig             1    wreg     unsigned char 
  1354 ;; Auto vars:     Size  Location     Type
  1355 ;;  dig             1    2[COMMON] unsigned char 
  1356 ;; Return value:  Size  Location     Type
  1357 ;;                  1    wreg      void 
  1358 ;; Registers used:
  1359 ;;		wreg, fsr0l, fsr0h, status,2, status,0
  1360 ;; Tracked objects:
  1361 ;;		On entry : 0/0
  1362 ;;		On exit  : 0/0
  1363 ;;		Unchanged: 0/0
  1364 ;; Data sizes:     COMMON   BANK0   BANK1   BANK2   BANK3   BANK4   BANK5   BANK6   BANK7   BANK8   BANK9  BANK10  BANK1
      +1  BANK12
  1365 ;;      Params:         0       0       0       0       0       0       0       0       0       0       0       0       
      +0       0
  1366 ;;      Locals:         1       0       0       0       0       0       0       0       0       0       0       0       
      +0       0
  1367 ;;      Temps:          2       0       0       0       0       0       0       0       0       0       0       0       
      +0       0
  1368 ;;      Totals:         3       0       0       0       0       0       0       0       0       0       0       0       
      +0       0
  1369 ;;Total ram usage:        3 bytes
  1370 ;; Hardware stack levels used: 1
  1371 ;; This function calls:
  1372 ;;		Nothing
  1373 ;; This function is called by:
  1374 ;;		_punto11
  1375 ;;		_displayUD
  1376 ;; This function uses a non-reentrant model
  1377 ;;
  1378                           
  1379     0663                     _display_cc:	
  1380                           ;psect for function _display_cc
  1381                           
  1382                           
  1383                           ;incstack = 0
  1384                           ; Regs used in _display_cc: [wreg-fsr0h+status,2+status,0]
  1385                           ;display_cc@dig stored from wreg
  1386     0663  00F9               	movwf	display_cc@dig
  1387     0664                     l733:
  1388                           
  1389                           ;DisplaySeven.c: 21:     switch (dig) {
  1390     0664  2FC9               	goto	l735
  1391     0665                     l99:	
  1392                           ;DisplaySeven.c: 23:         case 0:
  1393                           
  1394                           
  1395                           ;DisplaySeven.c: 24:             LATCbits.LATC0 = LATCbits.LATC1 = LATCbits.LATC2 = LATC
      +                          bits.LATC3 = LATCbits.LATC4 = LATCbits.LATC5 = catodo;
  1396     0665  0022               	movlb	2	; select bank2
  1397     0666  168E               	bsf	14,5	;volatile
  1398     0667  1A8E               	btfsc	14,5	;volatile
  1399     0668  2E6A               	goto	u11
  1400     0669  2E6D               	goto	u10
  1401     066A                     u11:
  1402     066A  0022               	movlb	2	; select bank2
  1403     066B  160E               	bsf	14,4	;volatile
  1404     066C  2E6F               	goto	u24
  1405     066D                     u10:
  1406     066D  0022               	movlb	2	; select bank2
  1407     066E  120E               	bcf	14,4	;volatile
  1408     066F                     u24:
  1409     066F  1A0E               	btfsc	14,4	;volatile
  1410     0670  2E72               	goto	u21
  1411     0671  2E75               	goto	u20
  1412     0672                     u21:
  1413     0672  0022               	movlb	2	; select bank2
  1414     0673  158E               	bsf	14,3	;volatile
  1415     0674  2E77               	goto	u34
  1416     0675                     u20:
  1417     0675  0022               	movlb	2	; select bank2
  1418     0676  118E               	bcf	14,3	;volatile
  1419     0677                     u34:
  1420     0677  198E               	btfsc	14,3	;volatile
  1421     0678  2E7A               	goto	u31
  1422     0679  2E7D               	goto	u30
  1423     067A                     u31:
  1424     067A  0022               	movlb	2	; select bank2
  1425     067B  150E               	bsf	14,2	;volatile
  1426     067C  2E7F               	goto	u44
  1427     067D                     u30:
  1428     067D  0022               	movlb	2	; select bank2
  1429     067E  110E               	bcf	14,2	;volatile
  1430     067F                     u44:
  1431     067F  190E               	btfsc	14,2	;volatile
  1432     0680  2E82               	goto	u41
  1433     0681  2E85               	goto	u40
  1434     0682                     u41:
  1435     0682  0022               	movlb	2	; select bank2
  1436     0683  148E               	bsf	14,1	;volatile
  1437     0684  2E87               	goto	u54
  1438     0685                     u40:
  1439     0685  0022               	movlb	2	; select bank2
  1440     0686  108E               	bcf	14,1	;volatile
  1441     0687                     u54:
  1442     0687  188E               	btfsc	14,1	;volatile
  1443     0688  2E8A               	goto	u51
  1444     0689  2E8D               	goto	u50
  1445     068A                     u51:
  1446     068A  0022               	movlb	2	; select bank2
  1447     068B  140E               	bsf	14,0	;volatile
  1448     068C  2E8F               	goto	u64
  1449     068D                     u50:
  1450     068D  0022               	movlb	2	; select bank2
  1451     068E  100E               	bcf	14,0	;volatile
  1452     068F                     u64:
  1453                           
  1454                           ;DisplaySeven.c: 25:             LATCbits.LATC6 = ~catodo;
  1455     068F  130E               	bcf	14,6	;volatile
  1456                           
  1457                           ;DisplaySeven.c: 26:             break;
  1458     0690  2FF1               	goto	l110
  1459     0691                     l101:	
  1460                           ;DisplaySeven.c: 27:         case 1:
  1461                           
  1462                           
  1463                           ;DisplaySeven.c: 28:             LATCbits.LATC1 = LATCbits.LATC2 = catodo;
  1464     0691  0022               	movlb	2	; select bank2
  1465     0692  150E               	bsf	14,2	;volatile
  1466     0693  190E               	btfsc	14,2	;volatile
  1467     0694  2E96               	goto	u71
  1468     0695  2E99               	goto	u70
  1469     0696                     u71:
  1470     0696  0022               	movlb	2	; select bank2
  1471     0697  148E               	bsf	14,1	;volatile
  1472     0698  2E9B               	goto	u84
  1473     0699                     u70:
  1474     0699  0022               	movlb	2	; select bank2
  1475     069A  108E               	bcf	14,1	;volatile
  1476     069B                     u84:
  1477                           
  1478                           ;DisplaySeven.c: 29:             LATCbits.LATC0 = LATCbits.LATC3 = LATCbits.LATC4 = LATC
      +                          bits.LATC5 = LATCbits.LATC6 = ~catodo;
  1479     069B  130E               	bcf	14,6	;volatile
  1480     069C  128E               	bcf	14,5	;volatile
  1481     069D  120E               	bcf	14,4	;volatile
  1482     069E  118E               	bcf	14,3	;volatile
  1483     069F  100E               	bcf	14,0	;volatile
  1484                           
  1485                           ;DisplaySeven.c: 30:             break;
  1486     06A0  2FF1               	goto	l110
  1487     06A1                     l102:	
  1488                           ;DisplaySeven.c: 31:         case 2:
  1489                           
  1490                           
  1491                           ;DisplaySeven.c: 32:             LATCbits.LATC0 = LATCbits.LATC1 = LATCbits.LATC6 = LATC
      +                          bits.LATC4 = LATCbits.LATC3 = catodo;
  1492     06A1  0022               	movlb	2	; select bank2
  1493     06A2  158E               	bsf	14,3	;volatile
  1494     06A3  198E               	btfsc	14,3	;volatile
  1495     06A4  2EA6               	goto	u91
  1496     06A5  2EA9               	goto	u90
  1497     06A6                     u91:
  1498     06A6  0022               	movlb	2	; select bank2
  1499     06A7  160E               	bsf	14,4	;volatile
  1500     06A8  2EAB               	goto	u104
  1501     06A9                     u90:
  1502     06A9  0022               	movlb	2	; select bank2
  1503     06AA  120E               	bcf	14,4	;volatile
  1504     06AB                     u104:
  1505     06AB  1A0E               	btfsc	14,4	;volatile
  1506     06AC  2EAE               	goto	u101
  1507     06AD  2EB1               	goto	u100
  1508     06AE                     u101:
  1509     06AE  0022               	movlb	2	; select bank2
  1510     06AF  170E               	bsf	14,6	;volatile
  1511     06B0  2EB3               	goto	u114
  1512     06B1                     u100:
  1513     06B1  0022               	movlb	2	; select bank2
  1514     06B2  130E               	bcf	14,6	;volatile
  1515     06B3                     u114:
  1516     06B3  1B0E               	btfsc	14,6	;volatile
  1517     06B4  2EB6               	goto	u111
  1518     06B5  2EB9               	goto	u110
  1519     06B6                     u111:
  1520     06B6  0022               	movlb	2	; select bank2
  1521     06B7  148E               	bsf	14,1	;volatile
  1522     06B8  2EBB               	goto	u124
  1523     06B9                     u110:
  1524     06B9  0022               	movlb	2	; select bank2
  1525     06BA  108E               	bcf	14,1	;volatile
  1526     06BB                     u124:
  1527     06BB  188E               	btfsc	14,1	;volatile
  1528     06BC  2EBE               	goto	u121
  1529     06BD  2EC1               	goto	u120
  1530     06BE                     u121:
  1531     06BE  0022               	movlb	2	; select bank2
  1532     06BF  140E               	bsf	14,0	;volatile
  1533     06C0  2EC3               	goto	u134
  1534     06C1                     u120:
  1535     06C1  0022               	movlb	2	; select bank2
  1536     06C2  100E               	bcf	14,0	;volatile
  1537     06C3                     u134:
  1538                           
  1539                           ;DisplaySeven.c: 33:             LATCbits.LATC2 = LATCbits.LATC5 = ~catodo;
  1540     06C3  128E               	bcf	14,5	;volatile
  1541     06C4  110E               	bcf	14,2	;volatile
  1542                           
  1543                           ;DisplaySeven.c: 34:             break;
  1544     06C5  2FF1               	goto	l110
  1545     06C6                     l103:	
  1546                           ;DisplaySeven.c: 35:         case 3:
  1547                           
  1548                           
  1549                           ;DisplaySeven.c: 36:             LATCbits.LATC0 = LATCbits.LATC1 = LATCbits.LATC6 = LATC
      +                          bits.LATC3 = LATCbits.LATC2 = catodo;
  1550     06C6  0022               	movlb	2	; select bank2
  1551     06C7  150E               	bsf	14,2	;volatile
  1552     06C8  190E               	btfsc	14,2	;volatile
  1553     06C9  2ECB               	goto	u141
  1554     06CA  2ECE               	goto	u140
  1555     06CB                     u141:
  1556     06CB  0022               	movlb	2	; select bank2
  1557     06CC  158E               	bsf	14,3	;volatile
  1558     06CD  2ED0               	goto	u154
  1559     06CE                     u140:
  1560     06CE  0022               	movlb	2	; select bank2
  1561     06CF  118E               	bcf	14,3	;volatile
  1562     06D0                     u154:
  1563     06D0  198E               	btfsc	14,3	;volatile
  1564     06D1  2ED3               	goto	u151
  1565     06D2  2ED6               	goto	u150
  1566     06D3                     u151:
  1567     06D3  0022               	movlb	2	; select bank2
  1568     06D4  170E               	bsf	14,6	;volatile
  1569     06D5  2ED8               	goto	u164
  1570     06D6                     u150:
  1571     06D6  0022               	movlb	2	; select bank2
  1572     06D7  130E               	bcf	14,6	;volatile
  1573     06D8                     u164:
  1574     06D8  1B0E               	btfsc	14,6	;volatile
  1575     06D9  2EDB               	goto	u161
  1576     06DA  2EDE               	goto	u160
  1577     06DB                     u161:
  1578     06DB  0022               	movlb	2	; select bank2
  1579     06DC  148E               	bsf	14,1	;volatile
  1580     06DD  2EE0               	goto	u174
  1581     06DE                     u160:
  1582     06DE  0022               	movlb	2	; select bank2
  1583     06DF  108E               	bcf	14,1	;volatile
  1584     06E0                     u174:
  1585     06E0  188E               	btfsc	14,1	;volatile
  1586     06E1  2EE3               	goto	u171
  1587     06E2  2EE6               	goto	u170
  1588     06E3                     u171:
  1589     06E3  0022               	movlb	2	; select bank2
  1590     06E4  140E               	bsf	14,0	;volatile
  1591     06E5  2EE8               	goto	u184
  1592     06E6                     u170:
  1593     06E6  0022               	movlb	2	; select bank2
  1594     06E7  100E               	bcf	14,0	;volatile
  1595     06E8                     u184:
  1596                           
  1597                           ;DisplaySeven.c: 37:             LATCbits.LATC4 = LATCbits.LATC5 = ~catodo;
  1598     06E8  128E               	bcf	14,5	;volatile
  1599     06E9  120E               	bcf	14,4	;volatile
  1600                           
  1601                           ;DisplaySeven.c: 38:             break;
  1602     06EA  2FF1               	goto	l110
  1603     06EB                     l104:	
  1604                           ;DisplaySeven.c: 39:         case 4:
  1605                           
  1606                           
  1607                           ;DisplaySeven.c: 40:             LATCbits.LATC5 = LATCbits.LATC6 = LATCbits.LATC1 = LATC
      +                          bits.LATC2 = catodo;
  1608     06EB  0022               	movlb	2	; select bank2
  1609     06EC  150E               	bsf	14,2	;volatile
  1610     06ED  190E               	btfsc	14,2	;volatile
  1611     06EE  2EF0               	goto	u191
  1612     06EF  2EF3               	goto	u190
  1613     06F0                     u191:
  1614     06F0  0022               	movlb	2	; select bank2
  1615     06F1  148E               	bsf	14,1	;volatile
  1616     06F2  2EF5               	goto	u204
  1617     06F3                     u190:
  1618     06F3  0022               	movlb	2	; select bank2
  1619     06F4  108E               	bcf	14,1	;volatile
  1620     06F5                     u204:
  1621     06F5  188E               	btfsc	14,1	;volatile
  1622     06F6  2EF8               	goto	u201
  1623     06F7  2EFB               	goto	u200
  1624     06F8                     u201:
  1625     06F8  0022               	movlb	2	; select bank2
  1626     06F9  170E               	bsf	14,6	;volatile
  1627     06FA  2EFD               	goto	u214
  1628     06FB                     u200:
  1629     06FB  0022               	movlb	2	; select bank2
  1630     06FC  130E               	bcf	14,6	;volatile
  1631     06FD                     u214:
  1632     06FD  1B0E               	btfsc	14,6	;volatile
  1633     06FE  2F00               	goto	u211
  1634     06FF  2F03               	goto	u210
  1635     0700                     u211:
  1636     0700  0022               	movlb	2	; select bank2
  1637     0701  168E               	bsf	14,5	;volatile
  1638     0702  2F05               	goto	u224
  1639     0703                     u210:
  1640     0703  0022               	movlb	2	; select bank2
  1641     0704  128E               	bcf	14,5	;volatile
  1642     0705                     u224:
  1643                           
  1644                           ;DisplaySeven.c: 41:             LATCbits.LATC4 = LATCbits.LATC0 = LATCbits.LATC3 = ~cat
      +                          odo;
  1645     0705  118E               	bcf	14,3	;volatile
  1646     0706  100E               	bcf	14,0	;volatile
  1647     0707  120E               	bcf	14,4	;volatile
  1648                           
  1649                           ;DisplaySeven.c: 42:             break;
  1650     0708  2FF1               	goto	l110
  1651     0709                     l105:	
  1652                           ;DisplaySeven.c: 43:         case 5:
  1653                           
  1654                           
  1655                           ;DisplaySeven.c: 44:             LATCbits.LATC0 = LATCbits.LATC2 = LATCbits.LATC3 = LATC
      +                          bits.LATC5 = LATCbits.LATC6 = catodo;
  1656     0709  0022               	movlb	2	; select bank2
  1657     070A  170E               	bsf	14,6	;volatile
  1658     070B  1B0E               	btfsc	14,6	;volatile
  1659     070C  2F0E               	goto	u231
  1660     070D  2F11               	goto	u230
  1661     070E                     u231:
  1662     070E  0022               	movlb	2	; select bank2
  1663     070F  168E               	bsf	14,5	;volatile
  1664     0710  2F13               	goto	u244
  1665     0711                     u230:
  1666     0711  0022               	movlb	2	; select bank2
  1667     0712  128E               	bcf	14,5	;volatile
  1668     0713                     u244:
  1669     0713  1A8E               	btfsc	14,5	;volatile
  1670     0714  2F16               	goto	u241
  1671     0715  2F19               	goto	u240
  1672     0716                     u241:
  1673     0716  0022               	movlb	2	; select bank2
  1674     0717  158E               	bsf	14,3	;volatile
  1675     0718  2F1B               	goto	u254
  1676     0719                     u240:
  1677     0719  0022               	movlb	2	; select bank2
  1678     071A  118E               	bcf	14,3	;volatile
  1679     071B                     u254:
  1680     071B  198E               	btfsc	14,3	;volatile
  1681     071C  2F1E               	goto	u251
  1682     071D  2F21               	goto	u250
  1683     071E                     u251:
  1684     071E  0022               	movlb	2	; select bank2
  1685     071F  150E               	bsf	14,2	;volatile
  1686     0720  2F23               	goto	u264
  1687     0721                     u250:
  1688     0721  0022               	movlb	2	; select bank2
  1689     0722  110E               	bcf	14,2	;volatile
  1690     0723                     u264:
  1691     0723  190E               	btfsc	14,2	;volatile
  1692     0724  2F26               	goto	u261
  1693     0725  2F29               	goto	u260
  1694     0726                     u261:
  1695     0726  0022               	movlb	2	; select bank2
  1696     0727  140E               	bsf	14,0	;volatile
  1697     0728  2F2B               	goto	u274
  1698     0729                     u260:
  1699     0729  0022               	movlb	2	; select bank2
  1700     072A  100E               	bcf	14,0	;volatile
  1701     072B                     u274:
  1702                           
  1703                           ;DisplaySeven.c: 45:             LATCbits.LATC1 = LATCbits.LATC4 = ~catodo;
  1704     072B  120E               	bcf	14,4	;volatile
  1705     072C  108E               	bcf	14,1	;volatile
  1706                           
  1707                           ;DisplaySeven.c: 46:             break;
  1708     072D  2FF1               	goto	l110
  1709     072E                     l106:	
  1710                           ;DisplaySeven.c: 47:         case 6:
  1711                           
  1712                           
  1713                           ;DisplaySeven.c: 48:             LATCbits.LATC0 = LATCbits.LATC2 = LATCbits.LATC3 = LATC
      +                          bits.LATC5 = LATCbits.LATC4 = LATCbits.LATC6 = catodo;
  1714     072E  0022               	movlb	2	; select bank2
  1715     072F  170E               	bsf	14,6	;volatile
  1716     0730  1B0E               	btfsc	14,6	;volatile
  1717     0731  2F33               	goto	u281
  1718     0732  2F36               	goto	u280
  1719     0733                     u281:
  1720     0733  0022               	movlb	2	; select bank2
  1721     0734  160E               	bsf	14,4	;volatile
  1722     0735  2F38               	goto	u294
  1723     0736                     u280:
  1724     0736  0022               	movlb	2	; select bank2
  1725     0737  120E               	bcf	14,4	;volatile
  1726     0738                     u294:
  1727     0738  1A0E               	btfsc	14,4	;volatile
  1728     0739  2F3B               	goto	u291
  1729     073A  2F3E               	goto	u290
  1730     073B                     u291:
  1731     073B  0022               	movlb	2	; select bank2
  1732     073C  168E               	bsf	14,5	;volatile
  1733     073D  2F40               	goto	u304
  1734     073E                     u290:
  1735     073E  0022               	movlb	2	; select bank2
  1736     073F  128E               	bcf	14,5	;volatile
  1737     0740                     u304:
  1738     0740  1A8E               	btfsc	14,5	;volatile
  1739     0741  2F43               	goto	u301
  1740     0742  2F46               	goto	u300
  1741     0743                     u301:
  1742     0743  0022               	movlb	2	; select bank2
  1743     0744  158E               	bsf	14,3	;volatile
  1744     0745  2F48               	goto	u314
  1745     0746                     u300:
  1746     0746  0022               	movlb	2	; select bank2
  1747     0747  118E               	bcf	14,3	;volatile
  1748     0748                     u314:
  1749     0748  198E               	btfsc	14,3	;volatile
  1750     0749  2F4B               	goto	u311
  1751     074A  2F4E               	goto	u310
  1752     074B                     u311:
  1753     074B  0022               	movlb	2	; select bank2
  1754     074C  150E               	bsf	14,2	;volatile
  1755     074D  2F50               	goto	u324
  1756     074E                     u310:
  1757     074E  0022               	movlb	2	; select bank2
  1758     074F  110E               	bcf	14,2	;volatile
  1759     0750                     u324:
  1760     0750  190E               	btfsc	14,2	;volatile
  1761     0751  2F53               	goto	u321
  1762     0752  2F56               	goto	u320
  1763     0753                     u321:
  1764     0753  0022               	movlb	2	; select bank2
  1765     0754  140E               	bsf	14,0	;volatile
  1766     0755  2F58               	goto	u334
  1767     0756                     u320:
  1768     0756  0022               	movlb	2	; select bank2
  1769     0757  100E               	bcf	14,0	;volatile
  1770     0758                     u334:
  1771                           
  1772                           ;DisplaySeven.c: 49:             LATCbits.LATC1 = ~catodo;
  1773     0758  108E               	bcf	14,1	;volatile
  1774                           
  1775                           ;DisplaySeven.c: 50:             break;
  1776     0759  2FF1               	goto	l110
  1777     075A                     l107:	
  1778                           ;DisplaySeven.c: 51:         case 7:
  1779                           
  1780                           
  1781                           ;DisplaySeven.c: 52:             LATCbits.LATC0 = LATCbits.LATC1 = LATCbits.LATC2 = cato
      +                          do;
  1782     075A  0022               	movlb	2	; select bank2
  1783     075B  150E               	bsf	14,2	;volatile
  1784     075C  190E               	btfsc	14,2	;volatile
  1785     075D  2F5F               	goto	u341
  1786     075E  2F62               	goto	u340
  1787     075F                     u341:
  1788     075F  0022               	movlb	2	; select bank2
  1789     0760  148E               	bsf	14,1	;volatile
  1790     0761  2F64               	goto	u354
  1791     0762                     u340:
  1792     0762  0022               	movlb	2	; select bank2
  1793     0763  108E               	bcf	14,1	;volatile
  1794     0764                     u354:
  1795     0764  188E               	btfsc	14,1	;volatile
  1796     0765  2F67               	goto	u351
  1797     0766  2F6A               	goto	u350
  1798     0767                     u351:
  1799     0767  0022               	movlb	2	; select bank2
  1800     0768  140E               	bsf	14,0	;volatile
  1801     0769  2F6C               	goto	u364
  1802     076A                     u350:
  1803     076A  0022               	movlb	2	; select bank2
  1804     076B  100E               	bcf	14,0	;volatile
  1805     076C                     u364:
  1806                           
  1807                           ;DisplaySeven.c: 53:             LATCbits.LATC3 = LATCbits.LATC5 = LATCbits.LATC4 = LATC
      +                          bits.LATC6 = ~catodo;
  1808     076C  130E               	bcf	14,6	;volatile
  1809     076D  120E               	bcf	14,4	;volatile
  1810     076E  128E               	bcf	14,5	;volatile
  1811     076F  118E               	bcf	14,3	;volatile
  1812                           
  1813                           ;DisplaySeven.c: 54:             break;
  1814     0770  2FF1               	goto	l110
  1815     0771                     l108:	
  1816                           ;DisplaySeven.c: 55:         case 8:
  1817                           
  1818                           
  1819                           ;DisplaySeven.c: 56:             LATCbits.LATC0 = LATCbits.LATC2 = LATCbits.LATC3 = LATC
      +                          bits.LATC1 = LATCbits.LATC5 = LATCbits.LATC4 = LATCbits.LATC6 = catodo;
  1820     0771  0022               	movlb	2	; select bank2
  1821     0772  170E               	bsf	14,6	;volatile
  1822     0773  1B0E               	btfsc	14,6	;volatile
  1823     0774  2F76               	goto	u371
  1824     0775  2F79               	goto	u370
  1825     0776                     u371:
  1826     0776  0022               	movlb	2	; select bank2
  1827     0777  160E               	bsf	14,4	;volatile
  1828     0778  2F7B               	goto	u384
  1829     0779                     u370:
  1830     0779  0022               	movlb	2	; select bank2
  1831     077A  120E               	bcf	14,4	;volatile
  1832     077B                     u384:
  1833     077B  1A0E               	btfsc	14,4	;volatile
  1834     077C  2F7E               	goto	u381
  1835     077D  2F81               	goto	u380
  1836     077E                     u381:
  1837     077E  0022               	movlb	2	; select bank2
  1838     077F  168E               	bsf	14,5	;volatile
  1839     0780  2F83               	goto	u394
  1840     0781                     u380:
  1841     0781  0022               	movlb	2	; select bank2
  1842     0782  128E               	bcf	14,5	;volatile
  1843     0783                     u394:
  1844     0783  1A8E               	btfsc	14,5	;volatile
  1845     0784  2F86               	goto	u391
  1846     0785  2F89               	goto	u390
  1847     0786                     u391:
  1848     0786  0022               	movlb	2	; select bank2
  1849     0787  148E               	bsf	14,1	;volatile
  1850     0788  2F8B               	goto	u404
  1851     0789                     u390:
  1852     0789  0022               	movlb	2	; select bank2
  1853     078A  108E               	bcf	14,1	;volatile
  1854     078B                     u404:
  1855     078B  188E               	btfsc	14,1	;volatile
  1856     078C  2F8E               	goto	u401
  1857     078D  2F91               	goto	u400
  1858     078E                     u401:
  1859     078E  0022               	movlb	2	; select bank2
  1860     078F  158E               	bsf	14,3	;volatile
  1861     0790  2F93               	goto	u414
  1862     0791                     u400:
  1863     0791  0022               	movlb	2	; select bank2
  1864     0792  118E               	bcf	14,3	;volatile
  1865     0793                     u414:
  1866     0793  198E               	btfsc	14,3	;volatile
  1867     0794  2F96               	goto	u411
  1868     0795  2F99               	goto	u410
  1869     0796                     u411:
  1870     0796  0022               	movlb	2	; select bank2
  1871     0797  150E               	bsf	14,2	;volatile
  1872     0798  2F9B               	goto	u424
  1873     0799                     u410:
  1874     0799  0022               	movlb	2	; select bank2
  1875     079A  110E               	bcf	14,2	;volatile
  1876     079B                     u424:
  1877     079B  190E               	btfsc	14,2	;volatile
  1878     079C  2F9E               	goto	u421
  1879     079D  2FA1               	goto	u420
  1880     079E                     u421:
  1881     079E  0022               	movlb	2	; select bank2
  1882     079F  140E               	bsf	14,0	;volatile
  1883     07A0  2FA3               	goto	u434
  1884     07A1                     u420:
  1885     07A1  0022               	movlb	2	; select bank2
  1886     07A2  100E               	bcf	14,0	;volatile
  1887     07A3                     u434:
  1888                           
  1889                           ;DisplaySeven.c: 57:             break;
  1890     07A3  2FF1               	goto	l110
  1891     07A4                     l109:	
  1892                           ;DisplaySeven.c: 58:         case 9:
  1893                           
  1894                           
  1895                           ;DisplaySeven.c: 59:             LATCbits.LATC0 = LATCbits.LATC1 = LATCbits.LATC2 = LATC
      +                          bits.LATC6 = LATCbits.LATC5 = catodo;
  1896     07A4  0022               	movlb	2	; select bank2
  1897     07A5  168E               	bsf	14,5	;volatile
  1898     07A6  1A8E               	btfsc	14,5	;volatile
  1899     07A7  2FA9               	goto	u441
  1900     07A8  2FAC               	goto	u440
  1901     07A9                     u441:
  1902     07A9  0022               	movlb	2	; select bank2
  1903     07AA  170E               	bsf	14,6	;volatile
  1904     07AB  2FAE               	goto	u454
  1905     07AC                     u440:
  1906     07AC  0022               	movlb	2	; select bank2
  1907     07AD  130E               	bcf	14,6	;volatile
  1908     07AE                     u454:
  1909     07AE  1B0E               	btfsc	14,6	;volatile
  1910     07AF  2FB1               	goto	u451
  1911     07B0  2FB4               	goto	u450
  1912     07B1                     u451:
  1913     07B1  0022               	movlb	2	; select bank2
  1914     07B2  150E               	bsf	14,2	;volatile
  1915     07B3  2FB6               	goto	u464
  1916     07B4                     u450:
  1917     07B4  0022               	movlb	2	; select bank2
  1918     07B5  110E               	bcf	14,2	;volatile
  1919     07B6                     u464:
  1920     07B6  190E               	btfsc	14,2	;volatile
  1921     07B7  2FB9               	goto	u461
  1922     07B8  2FBC               	goto	u460
  1923     07B9                     u461:
  1924     07B9  0022               	movlb	2	; select bank2
  1925     07BA  148E               	bsf	14,1	;volatile
  1926     07BB  2FBE               	goto	u474
  1927     07BC                     u460:
  1928     07BC  0022               	movlb	2	; select bank2
  1929     07BD  108E               	bcf	14,1	;volatile
  1930     07BE                     u474:
  1931     07BE  188E               	btfsc	14,1	;volatile
  1932     07BF  2FC1               	goto	u471
  1933     07C0  2FC4               	goto	u470
  1934     07C1                     u471:
  1935     07C1  0022               	movlb	2	; select bank2
  1936     07C2  140E               	bsf	14,0	;volatile
  1937     07C3  2FC6               	goto	u484
  1938     07C4                     u470:
  1939     07C4  0022               	movlb	2	; select bank2
  1940     07C5  100E               	bcf	14,0	;volatile
  1941     07C6                     u484:
  1942                           
  1943                           ;DisplaySeven.c: 60:             LATCbits.LATC3 = LATCbits.LATC4 = ~catodo;
  1944     07C6  120E               	bcf	14,4	;volatile
  1945     07C7  118E               	bcf	14,3	;volatile
  1946                           
  1947                           ;DisplaySeven.c: 62:     }
  1948     07C8  2FF1               	goto	l110
  1949     07C9                     l735:
  1950     07C9  0879               	movf	display_cc@dig,w
  1951     07CA  00F7               	movwf	??_display_cc
  1952     07CB  01F8               	clrf	??_display_cc+1
  1953                           
  1954                           ; Switch on 2 bytes has been partitioned into a top level switch of size 1, and 1 sub-sw
      +                          itches
  1955                           ; Switch size 1, requested type "simple"
  1956                           ; Number of cases is 1, Range of values is 0 to 0
  1957                           ; switch strategies available:
  1958                           ; Name         Instructions Cycles
  1959                           ; simple_byte            4     3 (average)
  1960                           ; direct_byte            8     6 (fixed)
  1961                           ; jumptable            260     6 (fixed)
  1962                           ;	Chosen strategy is simple_byte
  1963     07CC  0878               	movf	??_display_cc+1,w
  1964     07CD  3A00               	xorlw	0	; case 0
  1965     07CE  1903               	skipnz
  1966     07CF  2FD1               	goto	l869
  1967     07D0  2FF1               	goto	l110
  1968     07D1                     l869:
  1969                           
  1970                           ; Switch size 1, requested type "simple"
  1971                           ; Number of cases is 10, Range of values is 0 to 9
  1972                           ; switch strategies available:
  1973                           ; Name         Instructions Cycles
  1974                           ; direct_byte           26     6 (fixed)
  1975                           ; simple_byte           31    16 (average)
  1976                           ; jumptable            260     6 (fixed)
  1977                           ;	Chosen strategy is simple_byte
  1978     07D1  0877               	movf	??_display_cc,w
  1979     07D2  3A00               	xorlw	0	; case 0
  1980     07D3  1903               	skipnz
  1981     07D4  2E65               	goto	l99
  1982     07D5  3A01               	xorlw	1	; case 1
  1983     07D6  1903               	skipnz
  1984     07D7  2E91               	goto	l101
  1985     07D8  3A03               	xorlw	3	; case 2
  1986     07D9  1903               	skipnz
  1987     07DA  2EA1               	goto	l102
  1988     07DB  3A01               	xorlw	1	; case 3
  1989     07DC  1903               	skipnz
  1990     07DD  2EC6               	goto	l103
  1991     07DE  3A07               	xorlw	7	; case 4
  1992     07DF  1903               	skipnz
  1993     07E0  2EEB               	goto	l104
  1994     07E1  3A01               	xorlw	1	; case 5
  1995     07E2  1903               	skipnz
  1996     07E3  2F09               	goto	l105
  1997     07E4  3A03               	xorlw	3	; case 6
  1998     07E5  1903               	skipnz
  1999     07E6  2F2E               	goto	l106
  2000     07E7  3A01               	xorlw	1	; case 7
  2001     07E8  1903               	skipnz
  2002     07E9  2F5A               	goto	l107
  2003     07EA  3A0F               	xorlw	15	; case 8
  2004     07EB  1903               	skipnz
  2005     07EC  2F71               	goto	l108
  2006     07ED  3A01               	xorlw	1	; case 9
  2007     07EE  1903               	skipnz
  2008     07EF  2FA4               	goto	l109
  2009     07F0  2FF1               	goto	l110
  2010     07F1                     l110:
  2011     07F1  0008               	return
  2012     07F2                     __end_of_display_cc:
  2013     007E                     btemp	set	126	;btemp
  2014     007E                     wtemp0	set	126
  2015                           
  2016                           	psect	config
  2017                           
  2018                           ;Config register CONFIG1 @ 0x8007
  2019                           ;	Oscillator Selection
  2020                           ;	FOSC = HS, HS Oscillator, High-speed crystal/resonator connected between OSC1 and OSC2
      +                           pins
  2021                           ;	Watchdog Timer Enable
  2022                           ;	WDTE = OFF, WDT disabled
  2023                           ;	Power-up Timer Enable
  2024                           ;	PWRTE = OFF, PWRT disabled
  2025                           ;	MCLR Pin Function Select
  2026                           ;	MCLRE = ON, MCLR/VPP pin function is MCLR
  2027                           ;	Flash Program Memory Code Protection
  2028                           ;	CP = OFF, Program memory code protection is disabled
  2029                           ;	Data Memory Code Protection
  2030                           ;	CPD = OFF, Data memory code protection is disabled
  2031                           ;	Brown-out Reset Enable
  2032                           ;	BOREN = OFF, Brown-out Reset disabled
  2033                           ;	Clock Out Enable
  2034                           ;	CLKOUTEN = OFF, CLKOUT function is disabled. I/O or oscillator function on the CLKOUT 
      +                          pin
  2035                           ;	Internal/External Switchover
  2036                           ;	IESO = ON, Internal/External Switchover mode is enabled
  2037                           ;	Fail-Safe Clock Monitor Enable
  2038                           ;	FCMEN = ON, Fail-Safe Clock Monitor is enabled
  2039     8007                     	org	32775
  2040     8007  39E2               	dw	14818
  2041                           
  2042                           ;Config register CONFIG2 @ 0x8008
  2043                           ;	Flash Memory Self-Write Protection
  2044                           ;	WRT = OFF, Write protection off
  2045                           ;	Voltage Regulator Capacitor Enable
  2046                           ;	VCAPEN = OFF, All VCAP pin functionality is disabled
  2047                           ;	PLL Enable
  2048                           ;	PLLEN = OFF, 4x PLL disabled
  2049                           ;	Stack Overflow/Underflow Reset Enable
  2050                           ;	STVREN = ON, Stack Overflow or Underflow will cause a Reset
  2051                           ;	Brown-out Reset Voltage Selection
  2052                           ;	BORV = LO, Brown-out Reset Voltage (Vbor), low trip point selected.
  2053                           ;	Low-Voltage Programming Enable
  2054                           ;	LVP = OFF, High-voltage on MCLR/VPP must be used for programming
  2055     8008                     	org	32776
  2056     8008  1EFF               	dw	7935

Data Sizes:
    Strings     0
    Constant    0
    Data        1
    BSS         7
    Persistent  32
    Stack       0

Auto Spaces:
    Space          Size  Autos    Used
    COMMON           14      5      13
    BANK0            80      0       0
    BANK1            80      0       0
    BANK2            80      0       0
    BANK3            80      0       0
    BANK4            80      0       0
    BANK5            80      0       0
    BANK6            80      0       0
    BANK7            80      0       0
    BANK8            80      0       0
    BANK9            80      0       0
    BANK10           80      0       0
    BANK11           80      0       0
    BANK12           48      0       0

Pointer List with Targets:

    None.

Critical Paths under _main in COMMON

    _loop->_punto11
    _punto11->_display_cc

Critical Paths under _main in BANK0

    None.

Critical Paths under _main in BANK1

    None.

Critical Paths under _main in BANK2

    None.

Critical Paths under _main in BANK3

    None.

Critical Paths under _main in BANK4

    None.

Critical Paths under _main in BANK5

    None.

Critical Paths under _main in BANK6

    None.

Critical Paths under _main in BANK7

    None.

Critical Paths under _main in BANK8

    None.

Critical Paths under _main in BANK9

    None.

Critical Paths under _main in BANK10

    None.

Critical Paths under _main in BANK11

    None.

Critical Paths under _main in BANK12

    None.

Call Graph Tables:

 ---------------------------------------------------------------------------------
 (Depth) Function   	        Calls       Base Space   Used Autos Params    Refs
 ---------------------------------------------------------------------------------
 (0) _main                                                 0     0      0      15
                               _loop
                             _set_up
 ---------------------------------------------------------------------------------
 (1) _set_up                                               0     0      0       0
                       _display_init
 ---------------------------------------------------------------------------------
 (2) _display_init                                         0     0      0       0
 ---------------------------------------------------------------------------------
 (1) _loop                                                 0     0      0      15
                            _punto11
 ---------------------------------------------------------------------------------
 (2) _punto11                                              2     2      0      15
                                              3 COMMON     2     2      0
                         _display_cc
 ---------------------------------------------------------------------------------
 (3) _display_cc                                           3     3      0      15
                                              0 COMMON     3     3      0
 ---------------------------------------------------------------------------------
 Estimated maximum stack depth 3
 ---------------------------------------------------------------------------------

 Call Graph Graphs:

 _main (ROOT)
   _loop
     _punto11
       _display_cc
   _set_up
     _display_init

 Address spaces:
Name               Size   Autos  Total    Cost      Usage
BIGRAM             3F0      0       0       0        0.0%
EEDATA             100      0       0       0        0.0%
NULL                 0      0       0       0        0.0%
CODE                 0      0       0       0        0.0%
BITCOMMON            E      0       0       1        0.0%
BITSFR0              0      0       0       1        0.0%
SFR0                 0      0       0       1        0.0%
COMMON               E      5       D       2       92.9%
BITSFR1              0      0       0       2        0.0%
SFR1                 0      0       0       2        0.0%
BITSFR2              0      0       0       3        0.0%
SFR2                 0      0       0       3        0.0%
STACK                0      0       0       3        0.0%
BITBANK0            50      0       0       4        0.0%
BITSFR3              0      0       0       4        0.0%
SFR3                 0      0       0       4        0.0%
BANK0               50      0       0       5        0.0%
BITSFR4              0      0       0       5        0.0%
SFR4                 0      0       0       5        0.0%
BITBANK1            50      0       0       6        0.0%
BITSFR5              0      0       0       6        0.0%
SFR5                 0      0       0       6        0.0%
BANK1               50      0       0       7        0.0%
BITSFR6              0      0       0       7        0.0%
SFR6                 0      0       0       7        0.0%
BITBANK2            50      0       0       8        0.0%
BITSFR7              0      0       0       8        0.0%
SFR7                 0      0       0       8        0.0%
BANK2               50      0       0       9        0.0%
BITSFR8              0      0       0       9        0.0%
SFR8                 0      0       0       9        0.0%
BITBANK3            50      0       0      10        0.0%
BITSFR9              0      0       0      10        0.0%
SFR9                 0      0       0      10        0.0%
BANK3               50      0       0      11        0.0%
BITSFR10             0      0       0      11        0.0%
SFR10                0      0       0      11        0.0%
BITBANK4            50      0       0      12        0.0%
BITSFR11             0      0       0      12        0.0%
SFR11                0      0       0      12        0.0%
BANK4               50      0       0      13        0.0%
BITSFR12             0      0       0      13        0.0%
SFR12                0      0       0      13        0.0%
BITBANK5            50      0       0      14        0.0%
BITSFR13             0      0       0      14        0.0%
SFR13                0      0       0      14        0.0%
BANK5               50      0       0      15        0.0%
BITSFR14             0      0       0      15        0.0%
SFR14                0      0       0      15        0.0%
BITBANK6            50      0       0      16        0.0%
BITSFR15             0      0       0      16        0.0%
SFR15                0      0       0      16        0.0%
BANK6               50      0       0      17        0.0%
BITSFR16             0      0       0      17        0.0%
SFR16                0      0       0      17        0.0%
BITBANK7            50      0       0      18        0.0%
BITSFR17             0      0       0      18        0.0%
SFR17                0      0       0      18        0.0%
BANK7               50      0       0      19        0.0%
BITSFR18             0      0       0      19        0.0%
SFR18                0      0       0      19        0.0%
BITSFR19             0      0       0      20        0.0%
SFR19                0      0       0      20        0.0%
ABS                  0      0       D      20        0.0%
BITBANK8            50      0       0      21        0.0%
BITSFR20             0      0       0      21        0.0%
SFR20                0      0       0      21        0.0%
BANK8               50      0       0      22        0.0%
BITSFR21             0      0       0      22        0.0%
SFR21                0      0       0      22        0.0%
BITBANK9            50      0       0      23        0.0%
BITSFR22             0      0       0      23        0.0%
SFR22                0      0       0      23        0.0%
BANK9               50      0       0      24        0.0%
BITSFR23             0      0       0      24        0.0%
SFR23                0      0       0      24        0.0%
BITBANK10           50      0       0      25        0.0%
BITSFR24             0      0       0      25        0.0%
SFR24                0      0       0      25        0.0%
BANK10              50      0       0      26        0.0%
BITSFR25             0      0       0      26        0.0%
SFR25                0      0       0      26        0.0%
BITBANK11           50      0       0      27        0.0%
BITSFR26             0      0       0      27        0.0%
SFR26                0      0       0      27        0.0%
BANK11              50      0       0      28        0.0%
BITSFR27             0      0       0      28        0.0%
SFR27                0      0       0      28        0.0%
BITBANK12           30      0       0      29        0.0%
BITSFR28             0      0       0      29        0.0%
SFR28                0      0       0      29        0.0%
BANK12              30      0       0      30        0.0%
BITSFR29             0      0       0      30        0.0%
SFR29                0      0       0      30        0.0%
BITSFR30             0      0       0      31        0.0%
SFR30                0      0       0      31        0.0%
DATA                 0      0       D      31        0.0%
BITSFR31             0      0       0      32        0.0%
SFR31                0      0       0      32        0.0%


Microchip Technology PIC Macro Assembler V2.41 build 20230208172133 
Symbol Table                                                                                   Fri Sep 08 08:55:26 2023

                     l54 062D                       l63 0662                       l56 0632  
                     l58 063C                       l66 05FE                       l78 05CC  
                     l86 05D7                       l95 05E1                       l99 0665  
                     u10 066D                       u11 066A                       u20 0675  
                     u21 0672                       u30 067D                       u31 067A  
                     u40 0685                       u24 066F                       u41 0682  
                     u50 068D                       u34 0677                       u51 068A  
                     u44 067F                       u70 0699                       u54 0687  
                     u71 0696                       u64 068F                       u90 06A9  
                     u91 06A6                       u84 069B                      l101 0691  
                    l102 06A1                      l110 07F1                      l103 06C6  
                    l104 06EB                      l105 0709                      l106 072E  
                    l107 075A                      l108 0771                      l109 07A4  
                    l733 0664                      l741 05FF                      l813 05CC  
                    l735 07C9                      l751 0618                      l743 0604  
                    l761 063A                      l753 0622                      l745 0606  
                    l771 0651                      l763 0641                      l755 0627  
                    l747 060B                      l835 05D1                      l773 0653  
                    l765 0648                      l757 062B                      l749 060D  
                    l781 05E4                      l837 05D4                      l775 0657  
                    l767 064B                      l759 0636                      l791 05F9  
                    l783 05ED                      l769 064F                      l777 05D9  
                    l793 05FB                      l785 05EF                      l787 05F7  
                    l779 05E2                      l869 07D1                      l789 05F8  
          ?_display_init 0077                      u100 06B1                      u101 06AE  
                    u110 06B9                      u111 06B6                      u200 06FB  
                    u120 06C1                      u104 06AB                      u201 06F8  
                    u121 06BE                      u210 0703                      u114 06B3  
                    u211 0700                      u300 0746                      u204 06F5  
                    u140 06CE                      u124 06BB                      u301 0743  
                    u141 06CB                      u310 074E                      u230 0711  
                    u214 06FD                      u150 06D6                      u134 06C3  
                    u311 074B                      u231 070E                      u151 06D3  
                    u400 0791                      u320 0756                      u304 0740  
                    u240 0719                      u224 0705                      u160 06DE  
                    u401 078E                      u321 0753                      u241 0716  
                    u161 06DB                      u410 0799                      u314 0748  
                    u250 0721                      u170 06E6                      u154 06D0  
                    u411 0796                      u251 071E                      u171 06E3  
                    u420 07A1                      u404 078B                      u340 0762  
                    u324 0750                      u260 0729                      u244 0713  
                    u164 06D8                      u500 060B                      u421 079E  
                    u341 075F                      u261 0726                      u501 060A  
                    u414 0793                      u350 076A                      u334 0758  
                    u254 071B                      u190 06F3                      u174 06E0  
                    u351 0767                      u191 06F0                      u440 07AC  
                    u424 079B                      u280 0736                      u264 0723  
                    u184 06E8                      u520 0627                      u441 07A9  
                    u281 0733                      u521 0626                      u450 07B4  
                    u434 07A3                      u370 0779                      u354 0764  
                    u290 073E                      u274 072B                      u530 0632  
                    u514 061D                      u451 07B1                      u371 0776  
                    u291 073B                      u531 0631                      u515 061C  
                    u460 07BC                      u380 0781                      u364 076C  
                    u540 0636                      u461 07B9                      u381 077E  
                    u541 0635                      u470 07C4                      u454 07AE  
                    u390 0789                      u294 0738                      u550 0641  
                    u471 07C1                      u391 0786                      u551 0640  
                    u464 07B6                      u384 077B                      u560 0648  
                    u561 0647                      u474 07BE                      u394 0783  
                    u570 064F                      u490 0604                      u571 064E  
                    u491 0603                      u484 07C6                      u827 0612  
                    u837 065C                      wreg 0009                     _LATD 010F  
                   _WPUB 020D                     _Nbb1 0075                     _Nbb2 0074  
                   _cont 0076                     _main 05D1                     _loop 05CC  
                   btemp 007E                     start 0002           ??_display_init 0077  
                  ?_main 0077                    ?_loop 0077                    _PORTB 000D  
                  _PORTC 000E                    _PORTD 000F                    _TRISA 008C  
                  _TRISB 008D                    _TRISC 008E                    _TRISD 008F  
        __end_of_punto11 0663                    wtemp0 007E          __initialization 07F2  
           __end_of_main 05D9             __end_of_loop 05D1                   ??_main 007C  
                 ??_loop 007C                   _ANSELA 018C                   _ANSELB 018D  
                 _decena 0072                   _catodo 007C                   _set_up 05E2  
                 _unidad 0070            display_cc@dig 0079             __pdataCOMMON 007C  
              ??_punto11 007A  __end_of__initialization 07FD     __end_of_display_init 05E2  
         __pcstackCOMMON 0077           _OPTION_REGbits 0095               __pmaintext 05D1  
                ?_set_up 0077               _display_cc 0663                  __ptext1 05E2  
                __ptext2 05D9                  __ptext3 05CC                  __ptext4 05FF  
                __ptext5 0663                  _punto11 05FF     end_of_initialization 07FD  
              _PORTAbits 000C                _PORTBbits 000D             _display_init 05D9  
              _TRISAbits 008C                _TRISCbits 008E              ?_display_cc 0077  
          __pidataCOMMON 05CB           __end_of_set_up 05FF      start_initialization 07F2  
               ??_set_up 0077              __pbssCOMMON 0070                ___latbits 0003  
               ?_punto11 0077                 _LATAbits 010C                 _LATCbits 010E  
           ??_display_cc 0077       __end_of_display_cc 07F2  
